; Function Attrs: nounwind uwtable
define dso_local void @scardCommand(ptr noundef %0) local_unnamed_addr #0 {
  %2 = getelementptr inbounds nuw i8, ptr %0, i64 96
  %3 = load ptr, ptr %2, align 8, !tbaa !72
  %4 = getelementptr inbounds nuw i8, ptr %3, i64 8
  %5 = load ptr, ptr %4, align 8, !tbaa !73
  %6 = load ptr, ptr getelementptr inbounds nuw (i8, ptr @shared, i64 24), align 8, !tbaa !79
  %7 = tail call ptr @lookupKeyReadOrReply(ptr noundef %0, ptr noundef %5, ptr noundef %6) #10
  %8 = icmp eq ptr %7, null
  br i1 %8, label %33, label %9

9:                                                ; preds = %1
  %10 = tail call i32 @checkType(ptr noundef nonnull %0, ptr noundef nonnull %7, i32 noundef 2) #10
  %.not = icmp eq i32 %10, 0
  br i1 %.not, label %11, label %33

11:                                               ; preds = %9
  %12 = load i32, ptr %7, align 8
  %13 = lshr i32 %12, 4
  %14 = and i32 %13, 15
  switch i32 %14, label %32 [
    i32 2, label %15
    i32 6, label %23
    i32 11, label %28
  ]

15:                                               ; preds = %11
  %16 = getelementptr inbounds nuw i8, ptr %7, i64 8
  %17 = load ptr, ptr %16, align 8, !tbaa !38
  %18 = getelementptr inbounds nuw i8, ptr %17, i64 24
  %19 = load i64, ptr %18, align 8, !tbaa !50
  %20 = getelementptr inbounds nuw i8, ptr %17, i64 32
  %21 = load i64, ptr %20, align 8, !tbaa !50
  %22 = add i64 %21, %19
  br label %setTypeSize.exit

23:                                               ; preds = %11
  %24 = getelementptr inbounds nuw i8, ptr %7, i64 8
  %25 = load ptr, ptr %24, align 8, !tbaa !38
  %26 = tail call i32 @intsetLen(ptr noundef %25) #10
  %27 = zext i32 %26 to i64
  br label %setTypeSize.exit

28:                                               ; preds = %11
  %29 = getelementptr inbounds nuw i8, ptr %7, i64 8
  %30 = load ptr, ptr %29, align 8, !tbaa !38
  %31 = tail call i64 @lpLength(ptr noundef %30) #10
  br label %setTypeSize.exit

32:                                               ; preds = %11
  tail call void (ptr, i32, ptr, ...) @_serverPanic(ptr noundef nonnull @.str.1, i32 noundef 471, ptr noundef nonnull @.str.3) #10
  tail call void @abort() #11
  unreachable

setTypeSize.exit:                                 ; preds = %15, %23, %28
  %.0.i = phi i64 [ %22, %15 ], [ %27, %23 ], [ %31, %28 ]
  tail call void @addReplyLongLong(ptr noundef nonnull %0, i64 noundef %.0.i) #10
  br label %33

33:                                               ; preds = %1, %9, %setTypeSize.exit
  ret void
}